Certificate:
    Data:
        Version: 3 (0x2)
        Serial Number: 1 (0x1)
        Signature Algorithm: sha256WithRSAEncryption
        Issuer: C=IT, ST=Abruzzo, O=Tirasa, CN=CA
        Validity
            Not Before: Jan 30 10:08:55 2021 GMT
            Not After : Jan 30 10:08:55 2022 GMT
        Subject: C=IT, ST=Abruzzo, O=Tirasa, CN=CHCFNC77P08E243G/34343434
        Subject Public Key Info:
            Public Key Algorithm: rsaEncryption
                RSA Public-Key: (2048 bit)
                Modulus:
                    00:9d:ad:31:e8:c7:0f:f7:0a:4b:c0:df:5d:b7:97:
                    5c:25:42:04:bb:5e:80:a4:07:2d:b8:76:1c:c5:c0:
                    ef:f9:5b:38:bb:2d:b0:84:4f:23:ef:8d:8f:69:8a:
                    62:4b:86:e3:23:57:dd:b2:be:b0:88:b8:ed:bf:a2:
                    b8:6d:03:b1:63:71:e6:da:ab:91:73:77:b1:e2:6b:
                    d1:52:8a:0e:8b:b1:4e:c0:24:dc:68:78:ae:eb:ad:
                    87:c0:1f:8b:e7:15:d1:40:c4:a6:49:19:fe:8d:5d:
                    e2:61:0f:66:f1:2f:c0:1a:b3:eb:ca:01:0b:ed:69:
                    d3:53:cc:1f:ac:1b:f6:45:5c:a3:a9:80:35:0c:68:
                    71:98:b4:58:ec:bb:08:bf:74:11:11:32:45:99:be:
                    02:61:09:08:bf:ad:25:e1:d4:d5:09:a8:27:2f:77:
                    d1:57:3b:6e:46:a8:68:94:89:8b:e9:c0:9b:93:15:
                    b5:e9:87:e8:db:3f:be:ca:75:49:64:f0:33:32:56:
                    5c:9c:37:ba:c7:f5:1f:a8:82:e3:c5:08:90:d5:af:
                    b0:56:be:97:de:81:5b:08:4c:6e:fb:ee:8b:8e:a5:
                    ff:ee:ea:0a:57:c9:cb:f1:e9:d6:36:f7:36:f5:81:
                    d4:07:07:7a:0a:54:6c:c4:41:3e:e4:75:c1:b6:a3:
                    08:87
                Exponent: 65537 (0x10001)
        X509v3 extensions:
            X509v3 Basic Constraints: 
                CA:FALSE
            Netscape Comment: 
                OpenSSL Generated Certificate
            X509v3 Subject Key Identifier: 
                87:EF:03:B4:1E:C8:98:2D:4E:F2:1B:C8:FD:F4:A6:F9:DB:9F:56:73
            X509v3 Authority Key Identifier: 
                keyid:33:27:7B:08:E4:6F:B4:99:C9:27:BD:2D:38:E0:2A:34:16:ED:E6:62

    Signature Algorithm: sha256WithRSAEncryption
         62:b7:8a:cc:2a:9c:a7:aa:36:c9:37:2f:01:38:74:58:9a:44:
         78:27:d8:bf:67:bc:23:c9:fd:14:e0:c4:69:e3:cc:6c:a5:5d:
         cb:ee:2a:23:01:bb:6a:1e:5c:e0:9c:0e:fb:ca:8f:a5:6c:28:
         be:2f:67:c9:93:75:77:cb:40:09:1c:5c:78:23:ee:a4:b4:75:
         07:96:94:99:10:10:75:0e:3c:ed:17:30:94:65:30:e8:ab:7e:
         38:06:3e:56:8e:d2:59:86:f1:da:06:a9:61:a8:f0:8a:c0:0f:
         e8:e2:63:55:3f:7b:72:59:b2:8b:06:ef:95:93:4b:0c:c2:18:
         9c:e3:17:63:c3:fb:5e:0e:a9:dc:1c:4a:8b:15:18:a3:fe:ce:
         d0:4a:f0:cc:4e:07:a3:6a:fa:1c:43:91:64:b8:5f:5f:52:49:
         dc:6a:6f:72:02:38:aa:86:1e:55:e8:10:09:9f:c3:e0:59:49:
         b0:19:a7:33:95:d2:3e:fa:8a:40:5e:85:b6:1f:96:ba:0e:b0:
         17:82:6f:45:b7:7c:df:cc:ee:51:8e:85:60:a4:d3:7a:74:39:
         c9:97:26:ba:b4:ad:3f:3f:8c:64:52:dd:f7:4d:80:a9:75:77:
         21:b2:dc:2a:80:96:ae:2c:7f:fd:6f:1f:76:45:3c:0b:99:07:
         f5:dc:47:29
-----BEGIN CERTIFICATE-----
MIIDhzCCAm+gAwIBAgIBATANBgkqhkiG9w0BAQsFADA9MQswCQYDVQQGEwJJVDEQ
MA4GA1UECAwHQWJydXp6bzEPMA0GA1UECgwGVGlyYXNhMQswCQYDVQQDDAJDQTAe
Fw0yMTAxMzAxMDA4NTVaFw0yMjAxMzAxMDA4NTVaMFQxCzAJBgNVBAYTAklUMRAw
DgYDVQQIDAdBYnJ1enpvMQ8wDQYDVQQKDAZUaXJhc2ExIjAgBgNVBAMMGUNIQ0ZO
Qzc3UDA4RTI0M0cvMzQzNDM0MzQwggEiMA0GCSqGSIb3DQEBAQUAA4IBDwAwggEK
AoIBAQCdrTHoxw/3CkvA3123l1wlQgS7XoCkBy24dhzFwO/5Wzi7LbCETyPvjY9p
imJLhuMjV92yvrCIuO2/orhtA7Fjcebaq5Fzd7Hia9FSig6LsU7AJNxoeK7rrYfA
H4vnFdFAxKZJGf6NXeJhD2bxL8Aas+vKAQvtadNTzB+sG/ZFXKOpgDUMaHGYtFjs
uwi/dBERMkWZvgJhCQi/rSXh1NUJqCcvd9FXO25GqGiUiYvpwJuTFbXph+jbP77K
dUlk8DMyVlycN7rH9R+oguPFCJDVr7BWvpfegVsITG777ouOpf/u6gpXycvx6dY2
9zb1gdQHB3oKVGzEQT7kdcG2owiHAgMBAAGjezB5MAkGA1UdEwQCMAAwLAYJYIZI
AYb4QgENBB8WHU9wZW5TU0wgR2VuZXJhdGVkIENlcnRpZmljYXRlMB0GA1UdDgQW
BBSH7wO0HsiYLU7yG8j99Kb5259WczAfBgNVHSMEGDAWgBQzJ3sI5G+0mcknvS04
4Co0Fu3mYjANBgkqhkiG9w0BAQsFAAOCAQEAYreKzCqcp6o2yTcvATh0WJpEeCfY
v2e8I8n9FODEaePMbKVdy+4qIwG7ah5c4JwO+8qPpWwovi9nyZN1d8tACRxceCPu
pLR1B5aUmRAQdQ487RcwlGUw6Kt+OAY+Vo7SWYbx2gapYajwisAP6OJjVT97clmy
iwbvlZNLDMIYnOMXY8P7Xg6p3BxKixUYo/7O0ErwzE4Ho2r6HEORZLhfX1JJ3Gpv
cgI4qoYeVegQCZ/D4FlJsBmnM5XSPvqKQF6Fth+Wug6wF4JvRbd838zuUY6FYKTT
enQ5yZcmurStPz+MZFLd902AqXV3IbLcKoCWrix//W8fdkU8C5kH9dxHKQ==
-----END CERTIFICATE-----
