Certificate:
    Data:
        Version: 3 (0x2)
        Serial Number: 2 (0x2)
        Signature Algorithm: sha256WithRSAEncryption
        Issuer: C=IT, ST=Abruzzo, O=Tirasa, CN=CA
        Validity
            Not Before: Feb  2 12:53:43 2021 GMT
            Not After : Feb  2 12:53:43 2022 GMT
        Subject: C=IT, ST=Abruzzo, O=Tirasa, CN=CHCFNC77P08E243G/121212177/serialNumber=IDCIT-CA78789CC, GN=Francesco, SN=Chicchiricc\xC3\x83\xC2\xB2
        Subject Public Key Info:
            Public Key Algorithm: rsaEncryption
                RSA Public-Key: (2048 bit)
                Modulus:
                    00:b7:a2:40:15:30:64:8d:c7:87:8f:6a:52:c9:37:
                    18:ed:ce:fd:57:0c:dd:fc:57:09:f7:b6:42:dd:af:
                    67:6b:6e:f4:17:ad:d8:69:e6:19:16:26:c9:25:dd:
                    97:15:e1:91:97:42:97:07:59:b1:12:e8:c2:b4:1a:
                    3a:0e:cd:0e:20:63:6c:71:12:8f:ec:03:18:0a:87:
                    cf:27:c3:fa:aa:ec:ce:33:f3:eb:03:dd:1a:70:21:
                    b1:c7:e9:21:08:f4:c9:ec:7d:f4:50:4e:17:c2:a5:
                    99:d8:70:08:a3:8a:73:29:15:47:23:2c:c8:36:7e:
                    3f:8a:69:b3:f8:24:99:45:7c:cf:08:fe:e9:17:aa:
                    06:cb:9c:24:fb:5c:9a:ca:8a:94:fd:90:2f:c6:d5:
                    33:00:b5:39:6c:42:9e:2a:e3:53:ec:d9:2d:fc:21:
                    78:f4:48:23:40:59:1d:e9:e7:1c:32:c2:ea:98:f9:
                    34:dc:8e:52:db:d5:bd:f2:c8:0d:a3:55:7f:f9:41:
                    da:73:5f:7a:e7:df:78:76:ce:a0:40:b9:86:7e:2b:
                    0d:0d:0c:cd:c8:fe:e2:4e:7f:8c:9a:f6:c4:66:5d:
                    ab:55:6b:f7:28:17:64:a3:e4:c3:47:df:0e:8a:03:
                    bc:75:d6:86:2a:08:f2:2b:cb:de:86:f1:6d:7b:7a:
                    52:dd
                Exponent: 65537 (0x10001)
        X509v3 extensions:
            X509v3 Basic Constraints: 
                CA:FALSE
            Netscape Comment: 
                OpenSSL Generated Certificate
            X509v3 Subject Key Identifier: 
                99:FA:05:3C:69:BD:6A:05:43:79:D0:75:A5:7F:21:0A:89:BF:7A:99
            X509v3 Authority Key Identifier: 
                keyid:33:27:7B:08:E4:6F:B4:99:C9:27:BD:2D:38:E0:2A:34:16:ED:E6:62

    Signature Algorithm: sha256WithRSAEncryption
         03:72:3f:c7:a4:61:64:d8:4b:f3:3d:0a:0a:c8:6e:cb:0d:be:
         92:6c:6c:e3:54:98:c2:ff:1c:a5:2d:e4:e4:e1:58:d7:30:8b:
         fe:5e:6e:7f:e2:90:56:c0:53:4c:5a:c6:2c:39:4d:e8:fc:fc:
         2d:47:62:71:b5:bb:cc:2b:85:3b:de:60:e9:39:99:39:98:38:
         a2:4e:cb:8a:a1:b4:fc:56:93:8e:51:57:1c:25:b6:ed:d3:67:
         c7:73:d0:a0:ff:dd:cc:07:b7:35:ef:4c:bc:64:b3:c6:2d:75:
         60:7d:7f:ef:a7:4a:23:75:6b:d5:5f:c7:bd:f9:87:e9:57:ac:
         f7:16:ea:14:b5:48:19:ad:ac:cf:63:02:58:1c:58:8b:40:a8:
         52:e2:ed:73:ce:63:7e:54:93:24:70:6a:99:88:40:c8:65:47:
         28:c8:18:96:4a:c0:26:ed:5f:d7:4a:18:30:ee:9c:ee:5b:9e:
         e7:70:13:4c:a0:12:ca:44:b4:ab:cb:31:d0:5a:2b:85:5f:91:
         7f:03:d6:b5:96:96:6b:6a:9e:da:a4:f3:7a:78:32:b7:6f:71:
         56:18:3d:43:4d:13:7b:89:f8:ad:59:34:50:32:c0:3d:bf:b8:
         23:fc:91:38:2a:5e:21:81:be:d7:cb:97:bd:77:58:23:3c:be:
         6e:a2:0b:b9
-----BEGIN CERTIFICATE-----
MIID0TCCArmgAwIBAgIBAjANBgkqhkiG9w0BAQsFADA9MQswCQYDVQQGEwJJVDEQ
MA4GA1UECAwHQWJydXp6bzEPMA0GA1UECgwGVGlyYXNhMQswCQYDVQQDDAJDQTAe
Fw0yMTAyMDIxMjUzNDNaFw0yMjAyMDIxMjUzNDNaMIGdMQswCQYDVQQGEwJJVDEQ
MA4GA1UECAwHQWJydXp6bzEPMA0GA1UECgwGVGlyYXNhMSMwIQYDVQQDDBpDSENG
TkM3N1AwOEUyNDNHLzEyMTIxMjE3NzEYMBYGA1UEBRMPSURDSVQtQ0E3ODc4OUND
MRIwEAYDVQQqDAlGcmFuY2VzY28xGDAWBgNVBAQMD0NoaWNjaGlyaWNjw4PCsjCC
ASIwDQYJKoZIhvcNAQEBBQADggEPADCCAQoCggEBALeiQBUwZI3Hh49qUsk3GO3O
/VcM3fxXCfe2Qt2vZ2tu9Bet2GnmGRYmySXdlxXhkZdClwdZsRLowrQaOg7NDiBj
bHESj+wDGAqHzyfD+qrszjPz6wPdGnAhscfpIQj0yex99FBOF8KlmdhwCKOKcykV
RyMsyDZ+P4pps/gkmUV8zwj+6ReqBsucJPtcmsqKlP2QL8bVMwC1OWxCnirjU+zZ
LfwhePRII0BZHennHDLC6pj5NNyOUtvVvfLIDaNVf/lB2nNfeuffeHbOoEC5hn4r
DQ0Mzcj+4k5/jJr2xGZdq1Vr9ygXZKPkw0ffDooDvHXWhioI8ivL3obxbXt6Ut0C
AwEAAaN7MHkwCQYDVR0TBAIwADAsBglghkgBhvhCAQ0EHxYdT3BlblNTTCBHZW5l
cmF0ZWQgQ2VydGlmaWNhdGUwHQYDVR0OBBYEFJn6BTxpvWoFQ3nQdaV/IQqJv3qZ
MB8GA1UdIwQYMBaAFDMnewjkb7SZySe9LTjgKjQW7eZiMA0GCSqGSIb3DQEBCwUA
A4IBAQADcj/HpGFk2EvzPQoKyG7LDb6SbGzjVJjC/xylLeTk4VjXMIv+Xm5/4pBW
wFNMWsYsOU3o/PwtR2JxtbvMK4U73mDpOZk5mDiiTsuKobT8VpOOUVccJbbt02fH
c9Cg/93MB7c170y8ZLPGLXVgfX/vp0ojdWvVX8e9+YfpV6z3FuoUtUgZrazPYwJY
HFiLQKhS4u1zzmN+VJMkcGqZiEDIZUcoyBiWSsAm7V/XShgw7pzuW57ncBNMoBLK
RLSryzHQWiuFX5F/A9a1lpZrap7apPN6eDK3b3FWGD1DTRN7ifitWTRQMsA9v7gj
/JE4Kl4hgb7Xy5e9d1gjPL5uogu5
-----END CERTIFICATE-----
