Certificate:
    Data:
        Version: 3 (0x2)
        Serial Number: 3 (0x3)
        Signature Algorithm: sha256WithRSAEncryption
        Issuer: C=IT, ST=Abruzzo, O=Tirasa, CN=CA
        Validity
            Not Before: Feb 13 09:23:33 2022 GMT
            Not After : Feb 11 09:23:33 2032 GMT
        Subject: C=IT, ST=Abruzzo, L=Pescara, O=Tirasa, CN=CHCFNC77P08E243G/121212177/serialNumber=IDCIT-CA78789CD, GN=Francesco, SN=Chicchiricc\xC3\x83\xC2\xB2
        Subject Public Key Info:
            Public Key Algorithm: rsaEncryption
                RSA Public-Key: (2048 bit)
                Modulus:
                    00:a7:bd:38:bc:16:0a:6c:7e:43:f3:69:4a:99:14:
                    72:9d:83:dc:63:dc:32:44:16:4f:23:5d:1b:d8:f6:
                    f4:ed:86:b6:3d:79:91:40:36:7b:f6:f8:06:fe:5f:
                    11:45:1f:f4:b4:ec:28:c2:90:c6:54:53:dd:90:92:
                    88:91:8b:79:71:7b:9c:16:2c:b7:ff:54:56:85:28:
                    cf:07:8d:d3:18:07:02:0d:fb:75:e4:75:77:a2:ea:
                    68:e7:73:5e:44:24:de:81:9e:f7:4d:5f:a5:c6:3a:
                    37:32:98:7d:5a:7d:97:68:03:5d:47:b9:70:e9:c9:
                    65:a2:eb:3f:72:c8:5e:87:5f:12:63:ef:af:fb:59:
                    bc:97:d1:32:2b:8c:a9:95:40:49:6a:87:bc:6d:1f:
                    c4:75:0f:e4:c8:1e:ff:1b:7a:7a:60:29:7f:0d:c2:
                    bb:79:66:3d:44:3c:fe:c4:5a:8f:de:1c:3d:ec:b1:
                    56:cb:28:7c:92:4f:ca:5a:26:ea:ca:c2:d0:85:76:
                    ef:d9:cb:10:0f:d5:25:87:9f:88:11:8e:8f:f7:af:
                    1f:e3:51:3f:22:83:bd:0d:d7:55:0e:94:7f:b4:e9:
                    24:52:f5:31:0b:bb:f0:3d:e2:68:96:65:dd:43:c9:
                    56:86:c7:f5:d8:ad:4a:c0:25:2d:6c:94:8d:0c:8f:
                    07:c5
                Exponent: 65537 (0x10001)
        X509v3 extensions:
            X509v3 Basic Constraints: 
                CA:FALSE
            Netscape Comment: 
                OpenSSL Generated Certificate
            X509v3 Subject Key Identifier: 
                25:F5:68:A0:A5:EA:34:F6:17:AC:F6:FD:34:5A:69:AA:34:8B:59:AA
            X509v3 Authority Key Identifier: 
                keyid:33:27:7B:08:E4:6F:B4:99:C9:27:BD:2D:38:E0:2A:34:16:ED:E6:62

    Signature Algorithm: sha256WithRSAEncryption
         5f:cd:ef:17:d8:eb:80:3f:d2:72:de:0b:82:e6:f2:45:db:f6:
         19:c3:2d:75:22:75:14:6c:b2:85:41:58:af:6f:e5:97:24:70:
         a4:74:a4:d3:9d:2c:e9:6a:2b:84:ec:ca:0b:6c:14:2e:e2:52:
         84:f4:a4:25:fa:b7:d0:c1:b9:fe:a5:bf:23:e2:81:98:0d:a2:
         cf:31:04:b1:b9:d7:da:96:e6:f1:a9:79:dd:4d:fc:60:87:a2:
         96:06:98:a7:c6:06:83:d2:25:f1:39:bc:9c:39:7f:6c:37:dd:
         4d:f7:5f:45:30:e7:e9:9a:fb:c0:19:9d:ab:53:b6:1b:42:0a:
         27:4f:74:6d:40:5c:4f:79:e9:4f:49:ae:f3:54:f1:74:d1:f6:
         71:d1:c2:84:85:b7:28:91:de:0a:84:b7:da:95:a7:d3:08:1b:
         b6:38:52:c3:34:14:97:38:04:b1:84:f2:16:3f:22:9b:31:32:
         5d:fb:73:fa:e5:62:06:7b:ba:b5:a2:b3:ca:53:ce:6e:70:da:
         b0:dd:69:b3:42:bb:14:bb:a7:24:1c:31:65:56:29:c7:b0:b3:
         51:ba:93:32:f4:73:fc:99:e0:c3:3d:d7:3c:87:e5:46:a4:2e:
         55:e8:16:53:98:8f:2b:eb:4c:d6:5a:ee:c3:79:3e:24:e2:72:
         7c:4b:8a:ec
-----BEGIN CERTIFICATE-----
MIID4zCCAsugAwIBAgIBAzANBgkqhkiG9w0BAQsFADA9MQswCQYDVQQGEwJJVDEQ
MA4GA1UECAwHQWJydXp6bzEPMA0GA1UECgwGVGlyYXNhMQswCQYDVQQDDAJDQTAe
Fw0yMjAyMTMwOTIzMzNaFw0zMjAyMTEwOTIzMzNaMIGvMQswCQYDVQQGEwJJVDEQ
MA4GA1UECAwHQWJydXp6bzEQMA4GA1UEBwwHUGVzY2FyYTEPMA0GA1UECgwGVGly
YXNhMSMwIQYDVQQDDBpDSENGTkM3N1AwOEUyNDNHLzEyMTIxMjE3NzEYMBYGA1UE
BRMPSURDSVQtQ0E3ODc4OUNEMRIwEAYDVQQqDAlGcmFuY2VzY28xGDAWBgNVBAQM
D0NoaWNjaGlyaWNjw4PCsjCCASIwDQYJKoZIhvcNAQEBBQADggEPADCCAQoCggEB
AKe9OLwWCmx+Q/NpSpkUcp2D3GPcMkQWTyNdG9j29O2Gtj15kUA2e/b4Bv5fEUUf
9LTsKMKQxlRT3ZCSiJGLeXF7nBYst/9UVoUozweN0xgHAg37deR1d6LqaOdzXkQk
3oGe901fpcY6NzKYfVp9l2gDXUe5cOnJZaLrP3LIXodfEmPvr/tZvJfRMiuMqZVA
SWqHvG0fxHUP5Mge/xt6emApfw3Cu3lmPUQ8/sRaj94cPeyxVssofJJPylom6srC
0IV279nLEA/VJYefiBGOj/evH+NRPyKDvQ3XVQ6Uf7TpJFL1MQu78D3iaJZl3UPJ
VobH9ditSsAlLWyUjQyPB8UCAwEAAaN7MHkwCQYDVR0TBAIwADAsBglghkgBhvhC
AQ0EHxYdT3BlblNTTCBHZW5lcmF0ZWQgQ2VydGlmaWNhdGUwHQYDVR0OBBYEFCX1
aKCl6jT2F6z2/TRaaao0i1mqMB8GA1UdIwQYMBaAFDMnewjkb7SZySe9LTjgKjQW
7eZiMA0GCSqGSIb3DQEBCwUAA4IBAQBfze8X2OuAP9Jy3guC5vJF2/YZwy11InUU
bLKFQVivb+WXJHCkdKTTnSzpaiuE7MoLbBQu4lKE9KQl+rfQwbn+pb8j4oGYDaLP
MQSxudfalubxqXndTfxgh6KWBpinxgaD0iXxObycOX9sN91N919FMOfpmvvAGZ2r
U7YbQgonT3RtQFxPeelPSa7zVPF00fZx0cKEhbcokd4KhLfalafTCBu2OFLDNBSX
OASxhPIWPyKbMTJd+3P65WIGe7q1orPKU85ucNqw3WmzQrsUu6ckHDFlVinHsLNR
upMy9HP8meDDPdc8h+VGpC5V6BZTmI8r60zWWu7DeT4k4nJ8S4rs
-----END CERTIFICATE-----
